target datalayout = "e-m:e-p270:32:32-p271:32:32-p272:64:64-i64:64-i128:128-f80:128-n8:16:32:64-S128"
target triple = "x86_64-pc-linux-gnu"

%struct.__mm_storel_epi64_struct = type { i64 }
%struct.__loadu_si128 = type { <2 x i64> }

; Function Attrs: alwaysinline nounwind uwtable
define internal i32 @_mm_movemask_epi8(<2 x i64> noundef %0) #3 {
  %2 = alloca <2 x i64>, align 16
  store <2 x i64> %0, ptr %2, align 16, !tbaa !11
  %3 = load <2 x i64>, ptr %2, align 16, !tbaa !11
  %4 = bitcast <2 x i64> %3 to <16 x i8>
  %5 = call i32 @llvm.x86.sse2.pmovmskb.128(<16 x i8> %4)
  ret i32 %5
}

; Function Attrs: alwaysinline nounwind uwtable
define internal <2 x i64> @_mm_cmpeq_epi8(<2 x i64> noundef %0, <2 x i64> noundef %1) #3 {
  %3 = alloca <2 x i64>, align 16
  %4 = alloca <2 x i64>, align 16
  store <2 x i64> %0, ptr %3, align 16, !tbaa !11
  store <2 x i64> %1, ptr %4, align 16, !tbaa !11
  %5 = load <2 x i64>, ptr %3, align 16, !tbaa !11
  %6 = bitcast <2 x i64> %5 to <16 x i8>
  %7 = load <2 x i64>, ptr %4, align 16, !tbaa !11
  %8 = bitcast <2 x i64> %7 to <16 x i8>
  %9 = icmp eq <16 x i8> %6, %8
  %10 = sext <16 x i1> %9 to <16 x i8>
  %11 = bitcast <16 x i8> %10 to <2 x i64>
  ret <2 x i64> %11
}

; Function Attrs: alwaysinline nounwind uwtable
define internal void @_mm_storel_epi64(ptr noundef %0, <2 x i64> noundef %1) #3 {
  %3 = alloca ptr, align 8
  %4 = alloca <2 x i64>, align 16
  store ptr %0, ptr %3, align 8, !tbaa !3
  store <2 x i64> %1, ptr %4, align 16, !tbaa !11
  %5 = load <2 x i64>, ptr %4, align 16, !tbaa !11
  %6 = extractelement <2 x i64> %5, i32 0
  %7 = load ptr, ptr %3, align 8, !tbaa !3
  %8 = getelementptr inbounds nuw %struct.__mm_storel_epi64_struct, ptr %7, i32 0, i32 0
  store i64 %6, ptr %8, align 1, !tbaa !11
  ret void
}

; Function Attrs: alwaysinline nounwind uwtable
define internal <2 x i64> @_mm_packus_epi16(<2 x i64> noundef %0, <2 x i64> noundef %1) #3 {
  %3 = alloca <2 x i64>, align 16
  %4 = alloca <2 x i64>, align 16
  store <2 x i64> %0, ptr %3, align 16, !tbaa !11
  store <2 x i64> %1, ptr %4, align 16, !tbaa !11
  %5 = load <2 x i64>, ptr %3, align 16, !tbaa !11
  %6 = bitcast <2 x i64> %5 to <8 x i16>
  %7 = load <2 x i64>, ptr %4, align 16, !tbaa !11
  %8 = bitcast <2 x i64> %7 to <8 x i16>
  %9 = call <16 x i8> @llvm.x86.sse2.packuswb.128(<8 x i16> %6, <8 x i16> %8)
  %10 = bitcast <16 x i8> %9 to <2 x i64>
  ret <2 x i64> %10
}

; Function Attrs: alwaysinline nounwind uwtable
define internal <2 x i64> @_mm_packs_epi32(<2 x i64> noundef %0, <2 x i64> noundef %1) #3 {
  %3 = alloca <2 x i64>, align 16
  %4 = alloca <2 x i64>, align 16
  store <2 x i64> %0, ptr %3, align 16, !tbaa !11
  store <2 x i64> %1, ptr %4, align 16, !tbaa !11
  %5 = load <2 x i64>, ptr %3, align 16, !tbaa !11
  %6 = bitcast <2 x i64> %5 to <4 x i32>
  %7 = load <2 x i64>, ptr %4, align 16, !tbaa !11
  %8 = bitcast <2 x i64> %7 to <4 x i32>
  %9 = call <8 x i16> @llvm.x86.sse2.packssdw.128(<4 x i32> %6, <4 x i32> %8)
  %10 = bitcast <8 x i16> %9 to <2 x i64>
  ret <2 x i64> %10
}

; Function Attrs: alwaysinline nounwind uwtable
define internal <2 x i64> @_mm_and_si128(<2 x i64> noundef %0, <2 x i64> noundef %1) #3 {
  %3 = alloca <2 x i64>, align 16
  %4 = alloca <2 x i64>, align 16
  store <2 x i64> %0, ptr %3, align 16, !tbaa !11
  store <2 x i64> %1, ptr %4, align 16, !tbaa !11
  %5 = load <2 x i64>, ptr %3, align 16, !tbaa !11
  %6 = load <2 x i64>, ptr %4, align 16, !tbaa !11
  %7 = and <2 x i64> %5, %6
  ret <2 x i64> %7
}

; Function Attrs: alwaysinline nounwind uwtable
define internal <2 x i64> @_mm_loadu_si128(ptr noundef %0) #3 {
  %2 = alloca ptr, align 8
  store ptr %0, ptr %2, align 8, !tbaa !3
  %3 = load ptr, ptr %2, align 8, !tbaa !3
  %4 = getelementptr inbounds nuw %struct.__loadu_si128, ptr %3, i32 0, i32 0
  %5 = load <2 x i64>, ptr %4, align 1, !tbaa !11
  ret <2 x i64> %5
}

; Function Attrs: alwaysinline nounwind uwtable
define internal <2 x i64> @_mm_set_epi32(i32 noundef %0, i32 noundef %1, i32 noundef %2, i32 noundef %3) #3 {
  %5 = alloca i32, align 4
  %6 = alloca i32, align 4
  %7 = alloca i32, align 4
  %8 = alloca i32, align 4
  %9 = alloca <4 x i32>, align 16
  store i32 %0, ptr %5, align 4, !tbaa !9
  store i32 %1, ptr %6, align 4, !tbaa !9
  store i32 %2, ptr %7, align 4, !tbaa !9
  store i32 %3, ptr %8, align 4, !tbaa !9
  %10 = load i32, ptr %8, align 4, !tbaa !9
  %11 = insertelement <4 x i32> poison, i32 %10, i32 0
  %12 = load i32, ptr %7, align 4, !tbaa !9
  %13 = insertelement <4 x i32> %11, i32 %12, i32 1
  %14 = load i32, ptr %6, align 4, !tbaa !9
  %15 = insertelement <4 x i32> %13, i32 %14, i32 2
  %16 = load i32, ptr %5, align 4, !tbaa !9
  %17 = insertelement <4 x i32> %15, i32 %16, i32 3
  store <4 x i32> %17, ptr %9, align 16, !tbaa !11
  %18 = load <4 x i32>, ptr %9, align 16, !tbaa !11
  %19 = bitcast <4 x i32> %18 to <2 x i64>
  ret <2 x i64> %19
}

; Function Attrs: alwaysinline nounwind uwtable
define internal <2 x i64> @_mm_set1_epi32(i32 noundef %0) #3 {
  %2 = alloca i32, align 4
  store i32 %0, ptr %2, align 4, !tbaa !9
  %3 = load i32, ptr %2, align 4, !tbaa !9
  %4 = load i32, ptr %2, align 4, !tbaa !9
  %5 = load i32, ptr %2, align 4, !tbaa !9
  %6 = load i32, ptr %2, align 4, !tbaa !9
  %7 = call <2 x i64> @_mm_set_epi32(i32 noundef %3, i32 noundef %4, i32 noundef %5, i32 noundef %6)
  ret <2 x i64> %7
}

; Function Attrs: nounwind uwtable
define internal i32 @ExtractAlpha_SSE2(ptr noalias noundef %0, i32 noundef %1, i32 noundef %2, i32 noundef %3, ptr noalias noundef %4, i32 noundef %5) #1 {
  %7 = alloca ptr, align 8
  %8 = alloca i32, align 4
  %9 = alloca i32, align 4
  %10 = alloca i32, align 4
  %11 = alloca ptr, align 8
  %12 = alloca i32, align 4
  %13 = alloca i32, align 4
  %14 = alloca i32, align 4
  %15 = alloca i32, align 4
  %16 = alloca <2 x i64>, align 16
  %17 = alloca <2 x i64>, align 16
  %18 = alloca <2 x i64>, align 16
  %19 = alloca i32, align 4
  %20 = alloca ptr, align 8
  %21 = alloca <2 x i64>, align 16
  %22 = alloca <2 x i64>, align 16
  %23 = alloca <2 x i64>, align 16
  %24 = alloca <2 x i64>, align 16
  %25 = alloca <2 x i64>, align 16
  %26 = alloca <2 x i64>, align 16
  %27 = alloca i32, align 4
  store ptr %0, ptr %7, align 8, !tbaa !14
  store i32 %1, ptr %8, align 4, !tbaa !9
  store i32 %2, ptr %9, align 4, !tbaa !9
  store i32 %3, ptr %10, align 4, !tbaa !9
  store ptr %4, ptr %11, align 8, !tbaa !14
  store i32 %5, ptr %12, align 4, !tbaa !9
  call void @llvm.lifetime.start.p0(i64 4, ptr %13) #6
  store i32 255, ptr %13, align 4, !tbaa !9
  call void @llvm.lifetime.start.p0(i64 4, ptr %14) #6
  call void @llvm.lifetime.start.p0(i64 4, ptr %15) #6
  call void @llvm.lifetime.start.p0(i64 16, ptr %16) #6
  %28 = call <2 x i64> @_mm_set1_epi32(i32 noundef 255)
  store <2 x i64> %28, ptr %16, align 16, !tbaa !11
  call void @llvm.lifetime.start.p0(i64 16, ptr %17) #6
  %29 = call <2 x i64> @_mm_set_epi32(i32 noundef 0, i32 noundef 0, i32 noundef -1, i32 noundef -1)
  store <2 x i64> %29, ptr %17, align 16, !tbaa !11
  call void @llvm.lifetime.start.p0(i64 16, ptr %18) #6
  %30 = load <2 x i64>, ptr %17, align 16, !tbaa !11
  store <2 x i64> %30, ptr %18, align 16, !tbaa !11
  call void @llvm.lifetime.start.p0(i64 4, ptr %19) #6
  %31 = load i32, ptr %9, align 4, !tbaa !9
  %32 = sub nsw i32 %31, 1
  %33 = and i32 %32, -8
  store i32 %33, ptr %19, align 4, !tbaa !9
  store i32 0, ptr %15, align 4, !tbaa !9
  br label %34

34:                                               ; preds = %110, %6
  %35 = load i32, ptr %15, align 4, !tbaa !9
  %36 = load i32, ptr %10, align 4, !tbaa !9
  %37 = icmp slt i32 %35, %36
  br i1 %37, label %38, label %113

38:                                               ; preds = %34
  call void @llvm.lifetime.start.p0(i64 8, ptr %20) #6
  %39 = load ptr, ptr %7, align 8, !tbaa !14
  store ptr %39, ptr %20, align 8, !tbaa !3
  store i32 0, ptr %14, align 4, !tbaa !9
  br label %40

40:                                               ; preds = %73, %38
  %41 = load i32, ptr %14, align 4, !tbaa !9
  %42 = load i32, ptr %19, align 4, !tbaa !9
  %43 = icmp slt i32 %41, %42
  br i1 %43, label %44, label %76

44:                                               ; preds = %40
  call void @llvm.lifetime.start.p0(i64 16, ptr %21) #6
  %45 = load ptr, ptr %20, align 8, !tbaa !3
  %46 = getelementptr inbounds <2 x i64>, ptr %45, i64 0
  %47 = call <2 x i64> @_mm_loadu_si128(ptr noundef %46)
  store <2 x i64> %47, ptr %21, align 16, !tbaa !11
  call void @llvm.lifetime.start.p0(i64 16, ptr %22) #6
  %48 = load ptr, ptr %20, align 8, !tbaa !3
  %49 = getelementptr inbounds <2 x i64>, ptr %48, i64 1
  %50 = call <2 x i64> @_mm_loadu_si128(ptr noundef %49)
  store <2 x i64> %50, ptr %22, align 16, !tbaa !11
  call void @llvm.lifetime.start.p0(i64 16, ptr %23) #6
  %51 = load <2 x i64>, ptr %21, align 16, !tbaa !11
  %52 = load <2 x i64>, ptr %16, align 16, !tbaa !11
  %53 = call <2 x i64> @_mm_and_si128(<2 x i64> noundef %51, <2 x i64> noundef %52)
  store <2 x i64> %53, ptr %23, align 16, !tbaa !11
  call void @llvm.lifetime.start.p0(i64 16, ptr %24) #6
  %54 = load <2 x i64>, ptr %22, align 16, !tbaa !11
  %55 = load <2 x i64>, ptr %16, align 16, !tbaa !11
  %56 = call <2 x i64> @_mm_and_si128(<2 x i64> noundef %54, <2 x i64> noundef %55)
  store <2 x i64> %56, ptr %24, align 16, !tbaa !11
  call void @llvm.lifetime.start.p0(i64 16, ptr %25) #6
  %57 = load <2 x i64>, ptr %23, align 16, !tbaa !11
  %58 = load <2 x i64>, ptr %24, align 16, !tbaa !11
  %59 = call <2 x i64> @_mm_packs_epi32(<2 x i64> noundef %57, <2 x i64> noundef %58)
  store <2 x i64> %59, ptr %25, align 16, !tbaa !11
  call void @llvm.lifetime.start.p0(i64 16, ptr %26) #6
  %60 = load <2 x i64>, ptr %25, align 16, !tbaa !11
  %61 = load <2 x i64>, ptr %25, align 16, !tbaa !11
  %62 = call <2 x i64> @_mm_packus_epi16(<2 x i64> noundef %60, <2 x i64> noundef %61)
  store <2 x i64> %62, ptr %26, align 16, !tbaa !11
  %63 = load ptr, ptr %11, align 8, !tbaa !14
  %64 = load i32, ptr %14, align 4, !tbaa !9
  %65 = sext i32 %64 to i64
  %66 = getelementptr inbounds i8, ptr %63, i64 %65
  %67 = load <2 x i64>, ptr %26, align 16, !tbaa !11
  call void @_mm_storel_epi64(ptr noundef %66, <2 x i64> noundef %67)
  %68 = load <2 x i64>, ptr %18, align 16, !tbaa !11
  %69 = load <2 x i64>, ptr %26, align 16, !tbaa !11
  %70 = call <2 x i64> @_mm_and_si128(<2 x i64> noundef %68, <2 x i64> noundef %69)
  store <2 x i64> %70, ptr %18, align 16, !tbaa !11
  %71 = load ptr, ptr %20, align 8, !tbaa !3
  %72 = getelementptr inbounds <2 x i64>, ptr %71, i64 2
  store ptr %72, ptr %20, align 8, !tbaa !3
  call void @llvm.lifetime.end.p0(i64 16, ptr %26) #6
  call void @llvm.lifetime.end.p0(i64 16, ptr %25) #6
  call void @llvm.lifetime.end.p0(i64 16, ptr %24) #6
  call void @llvm.lifetime.end.p0(i64 16, ptr %23) #6
  call void @llvm.lifetime.end.p0(i64 16, ptr %22) #6
  call void @llvm.lifetime.end.p0(i64 16, ptr %21) #6
  br label %73

73:                                               ; preds = %44
  %74 = load i32, ptr %14, align 4, !tbaa !9
  %75 = add nsw i32 %74, 8
  store i32 %75, ptr %14, align 4, !tbaa !9
  br label %40, !llvm.loop !27

76:                                               ; preds = %40
  br label %77

77:                                               ; preds = %98, %76
  %78 = load i32, ptr %14, align 4, !tbaa !9
  %79 = load i32, ptr %9, align 4, !tbaa !9
  %80 = icmp slt i32 %78, %79
  br i1 %80, label %81, label %101

81:                                               ; preds = %77
  call void @llvm.lifetime.start.p0(i64 4, ptr %27) #6
  %82 = load ptr, ptr %7, align 8, !tbaa !14
  %83 = load i32, ptr %14, align 4, !tbaa !9
  %84 = mul nsw i32 4, %83
  %85 = sext i32 %84 to i64
  %86 = getelementptr inbounds i8, ptr %82, i64 %85
  %87 = load i8, ptr %86, align 1, !tbaa !11
  %88 = zext i8 %87 to i32
  store i32 %88, ptr %27, align 4, !tbaa !9
  %89 = load i32, ptr %27, align 4, !tbaa !9
  %90 = trunc i32 %89 to i8
  %91 = load ptr, ptr %11, align 8, !tbaa !14
  %92 = load i32, ptr %14, align 4, !tbaa !9
  %93 = sext i32 %92 to i64
  %94 = getelementptr inbounds i8, ptr %91, i64 %93
  store i8 %90, ptr %94, align 1, !tbaa !11
  %95 = load i32, ptr %27, align 4, !tbaa !9
  %96 = load i32, ptr %13, align 4, !tbaa !9
  %97 = and i32 %96, %95
  store i32 %97, ptr %13, align 4, !tbaa !9
  call void @llvm.lifetime.end.p0(i64 4, ptr %27) #6
  br label %98

98:                                               ; preds = %81
  %99 = load i32, ptr %14, align 4, !tbaa !9
  %100 = add nsw i32 %99, 1
  store i32 %100, ptr %14, align 4, !tbaa !9
  br label %77, !llvm.loop !28

101:                                              ; preds = %77
  %102 = load i32, ptr %8, align 4, !tbaa !9
  %103 = load ptr, ptr %7, align 8, !tbaa !14
  %104 = sext i32 %102 to i64
  %105 = getelementptr inbounds i8, ptr %103, i64 %104
  store ptr %105, ptr %7, align 8, !tbaa !14
  %106 = load i32, ptr %12, align 4, !tbaa !9
  %107 = load ptr, ptr %11, align 8, !tbaa !14
  %108 = sext i32 %106 to i64
  %109 = getelementptr inbounds i8, ptr %107, i64 %108
  store ptr %109, ptr %11, align 8, !tbaa !14
  call void @llvm.lifetime.end.p0(i64 8, ptr %20) #6
  br label %110

110:                                              ; preds = %101
  %111 = load i32, ptr %15, align 4, !tbaa !9
  %112 = add nsw i32 %111, 1
  store i32 %112, ptr %15, align 4, !tbaa !9
  br label %34, !llvm.loop !29

113:                                              ; preds = %34
  %114 = load <2 x i64>, ptr %18, align 16, !tbaa !11
  %115 = load <2 x i64>, ptr %17, align 16, !tbaa !11
  %116 = call <2 x i64> @_mm_cmpeq_epi8(<2 x i64> noundef %114, <2 x i64> noundef %115)
  %117 = call i32 @_mm_movemask_epi8(<2 x i64> noundef %116)
  %118 = load i32, ptr %13, align 4, !tbaa !9
  %119 = and i32 %118, %117
  store i32 %119, ptr %13, align 4, !tbaa !9
  %120 = load i32, ptr %13, align 4, !tbaa !9
  %121 = icmp eq i32 %120, 255
  %122 = zext i1 %121 to i32
  call void @llvm.lifetime.end.p0(i64 4, ptr %19) #6
  call void @llvm.lifetime.end.p0(i64 16, ptr %18) #6
  call void @llvm.lifetime.end.p0(i64 16, ptr %17) #6
  call void @llvm.lifetime.end.p0(i64 16, ptr %16) #6
  call void @llvm.lifetime.end.p0(i64 4, ptr %15) #6
  call void @llvm.lifetime.end.p0(i64 4, ptr %14) #6
  call void @llvm.lifetime.end.p0(i64 4, ptr %13) #6
  ret i32 %122
}