; Function Attrs: nofree norecurse nosync nounwind memory(argmem: readwrite) uwtable
define internal range(i32 0, 2) i32 @ExtractAlpha_SSE2(ptr noalias noundef readonly captures(none) %0, i32 noundef %1, i32 noundef %2, i32 noundef %3, ptr noalias noundef writeonly captures(none) %4, i32 noundef %5) #2 {
  %7 = add nsw i32 %2, -1
  %8 = and i32 %7, -8
  %9 = icmp sgt i32 %3, 0
  br i1 %9, label %.preheader50.lr.ph, label %._crit_edge64

.preheader50.lr.ph:                               ; preds = %6
  %10 = icmp sgt i32 %2, 8
  %11 = sext i32 %1 to i64
  %12 = sext i32 %5 to i64
  br i1 %10, label %.preheader50.us.preheader, label %.preheader50.lr.ph.split

.preheader50.us.preheader:                        ; preds = %.preheader50.lr.ph
  %13 = sext i32 %8 to i64
  %14 = zext nneg i32 %2 to i64
  br label %.preheader50.us

.preheader50.us:                                  ; preds = %.preheader50.us.preheader, %._crit_edge.us
  %.063.us = phi ptr [ %15, %._crit_edge.us ], [ %0, %.preheader50.us.preheader ]
  %.04262.us = phi ptr [ %16, %._crit_edge.us ], [ %4, %.preheader50.us.preheader ]
  %.04361.us = phi i32 [ %.1.lcssa.us, %._crit_edge.us ], [ 255, %.preheader50.us.preheader ]
  %.04660.us = phi i32 [ %17, %._crit_edge.us ], [ 0, %.preheader50.us.preheader ]
  %.04759.us = phi <2 x i64> [ %36, %._crit_edge.us ], [ <i64 -1, i64 0>, %.preheader50.us.preheader ]
  br label %25

._crit_edge.us:                                   ; preds = %.lr.ph57.us, %..preheader_crit_edge.us
  %.1.lcssa.us = phi i32 [ %.04361.us, %..preheader_crit_edge.us ], [ %23, %.lr.ph57.us ]
  %15 = getelementptr inbounds i8, ptr %.063.us, i64 %11
  %16 = getelementptr inbounds i8, ptr %.04262.us, i64 %12
  %17 = add nuw nsw i32 %.04660.us, 1
  %exitcond98.not = icmp eq i32 %17, %3
  br i1 %exitcond98.not, label %._crit_edge64.loopexit, label %.preheader50.us, !llvm.loop !23

.lr.ph57.us:                                      ; preds = %..preheader_crit_edge.us, %.lr.ph57.us
  %indvars.iv95 = phi i64 [ %indvars.iv.next96, %.lr.ph57.us ], [ %indvars.iv93, %..preheader_crit_edge.us ]
  %.156.us = phi i32 [ %23, %.lr.ph57.us ], [ %.04361.us, %..preheader_crit_edge.us ]
  %18 = shl nsw i64 %indvars.iv95, 2
  %19 = getelementptr inbounds nuw i8, ptr %.063.us, i64 %18
  %20 = load i8, ptr %19, align 1, !tbaa !7
  %21 = zext i8 %20 to i32
  %22 = getelementptr inbounds nuw i8, ptr %.04262.us, i64 %indvars.iv95
  store i8 %20, ptr %22, align 1, !tbaa !7
  %23 = and i32 %.156.us, %21
  %indvars.iv.next96 = add nuw nsw i64 %indvars.iv95, 1
  %24 = icmp samesign ult i64 %indvars.iv.next96, %14
  br i1 %24, label %.lr.ph57.us, label %._crit_edge.us, !llvm.loop !24

25:                                               ; preds = %.preheader50.us, %25
  %indvars.iv93 = phi i64 [ 8, %.preheader50.us ], [ %indvars.iv.next94, %25 ]
  %indvars.iv90 = phi i64 [ 0, %.preheader50.us ], [ %indvars.iv.next91, %25 ]
  %.14852.us = phi <2 x i64> [ %.04759.us, %.preheader50.us ], [ %36, %25 ]
  %.04951.us = phi ptr [ %.063.us, %.preheader50.us ], [ %37, %25 ]
  %26 = load <4 x i32>, ptr %.04951.us, align 1, !tbaa !7
  %27 = getelementptr inbounds nuw i8, ptr %.04951.us, i64 16
  %28 = load <4 x i32>, ptr %27, align 1, !tbaa !7
  %29 = and <4 x i32> %26, splat (i32 255)
  %30 = and <4 x i32> %28, splat (i32 255)
  %31 = tail call <8 x i16> @llvm.x86.sse2.packssdw.128(<4 x i32> %29, <4 x i32> %30)
  %32 = tail call <16 x i8> @llvm.x86.sse2.packuswb.128(<8 x i16> %31, <8 x i16> %31)
  %33 = bitcast <16 x i8> %32 to <2 x i64>
  %34 = getelementptr inbounds nuw i8, ptr %.04262.us, i64 %indvars.iv90
  %35 = extractelement <2 x i64> %33, i64 0
  store i64 %35, ptr %34, align 1, !tbaa !7
  %36 = and <2 x i64> %.14852.us, %33
  %37 = getelementptr inbounds nuw i8, ptr %.04951.us, i64 32
  %indvars.iv.next91 = add nuw nsw i64 %indvars.iv90, 8
  %38 = icmp slt i64 %indvars.iv.next91, %13
  %indvars.iv.next94 = add nuw nsw i64 %indvars.iv93, 8
  br i1 %38, label %25, label %..preheader_crit_edge.us, !llvm.loop !25

..preheader_crit_edge.us:                         ; preds = %25
  %39 = trunc nuw nsw i64 %indvars.iv.next91 to i32
  %40 = icmp sgt i32 %2, %39
  br i1 %40, label %.lr.ph57.us, label %._crit_edge.us

.preheader50.lr.ph.split:                         ; preds = %.preheader50.lr.ph
  %41 = icmp sgt i32 %2, 0
  br i1 %41, label %.preheader50.us68.preheader, label %._crit_edge64

.preheader50.us68.preheader:                      ; preds = %.preheader50.lr.ph.split
  %wide.trip.count = zext nneg i32 %2 to i64
  br label %.preheader50.us68

.preheader50.us68:                                ; preds = %.preheader50.us68.preheader, %._crit_edge.us77
  %.063.us69 = phi ptr [ %49, %._crit_edge.us77 ], [ %0, %.preheader50.us68.preheader ]
  %.04262.us70 = phi ptr [ %50, %._crit_edge.us77 ], [ %4, %.preheader50.us68.preheader ]
  %.04361.us71 = phi i32 [ %48, %._crit_edge.us77 ], [ 255, %.preheader50.us68.preheader ]
  %.04660.us72 = phi i32 [ %51, %._crit_edge.us77 ], [ 0, %.preheader50.us68.preheader ]
  br label %42

42:                                               ; preds = %.preheader50.us68, %42
  %indvars.iv = phi i64 [ 0, %.preheader50.us68 ], [ %indvars.iv.next, %42 ]
  %.156.us74 = phi i32 [ %.04361.us71, %.preheader50.us68 ], [ %48, %42 ]
  %43 = shl nsw i64 %indvars.iv, 2
  %44 = getelementptr inbounds nuw i8, ptr %.063.us69, i64 %43
  %45 = load i8, ptr %44, align 1, !tbaa !7
  %46 = zext i8 %45 to i32
  %47 = getelementptr inbounds nuw i8, ptr %.04262.us70, i64 %indvars.iv
  store i8 %45, ptr %47, align 1, !tbaa !7
  %48 = and i32 %.156.us74, %46
  %indvars.iv.next = add nuw nsw i64 %indvars.iv, 1
  %exitcond.not = icmp eq i64 %indvars.iv.next, %wide.trip.count
  br i1 %exitcond.not, label %._crit_edge.us77, label %42, !llvm.loop !24

._crit_edge.us77:                                 ; preds = %42
  %49 = getelementptr inbounds i8, ptr %.063.us69, i64 %11
  %50 = getelementptr inbounds i8, ptr %.04262.us70, i64 %12
  %51 = add nuw nsw i32 %.04660.us72, 1
  %exitcond89.not = icmp eq i32 %51, %3
  br i1 %exitcond89.not, label %._crit_edge64, label %.preheader50.us68, !llvm.loop !23

._crit_edge64.loopexit:                           ; preds = %._crit_edge.us
  %52 = bitcast <2 x i64> %36 to <16 x i8>
  %53 = icmp eq <16 x i8> %52, <i8 -1, i8 -1, i8 -1, i8 -1, i8 -1, i8 -1, i8 -1, i8 -1, i8 0, i8 0, i8 0, i8 0, i8 0, i8 0, i8 0, i8 0>
  %54 = bitcast <16 x i1> %53 to i16
  %55 = zext i16 %54 to i32
  br label %._crit_edge64

._crit_edge64:                                    ; preds = %._crit_edge.us77, %.preheader50.lr.ph.split, %._crit_edge64.loopexit, %6
  %.047.lcssa = phi i32 [ 65535, %6 ], [ %55, %._crit_edge64.loopexit ], [ 65535, %.preheader50.lr.ph.split ], [ 65535, %._crit_edge.us77 ]
  %.043.lcssa = phi i32 [ 255, %6 ], [ %.1.lcssa.us, %._crit_edge64.loopexit ], [ 255, %.preheader50.lr.ph.split ], [ %48, %._crit_edge.us77 ]
  %56 = and i32 %.043.lcssa, %.047.lcssa
  %57 = icmp eq i32 %56, 255
  %58 = zext i1 %57 to i32
  ret i32 %58
}